; ModuleID = '15/1228.c'
source_filename = "15/1228.c"
target datalayout = "e-m:e-p270:32:32-p271:32:32-p272:64:64-i64:64-f80:128-n8:16:32:64-S128"
target triple = "x86_64-pc-linux-gnu"

@.str = private unnamed_addr constant [3 x i8] c"%d\00", align 1

; Function Attrs: noinline nounwind uwtable
define dso_local i32 @main() #0 {
  %1 = alloca i32, align 4
  %2 = alloca [100 x [100 x i32]], align 16
  %3 = alloca i32, align 4
  %4 = alloca i32, align 4
  %5 = alloca i32, align 4
  %6 = alloca i32, align 4
  %7 = alloca i32, align 4
  %8 = alloca i32, align 4
  %9 = alloca i32, align 4
  %10 = alloca i32, align 4
  store i32 0, i32* %1, align 4
  store i32 0, i32* %5, align 4
  store i32 0, i32* %6, align 4
  store i32 0, i32* %7, align 4
  store i32 0, i32* %8, align 4
  store i32 0, i32* %9, align 4
  %11 = call i32 (i8*, ...) @__isoc99_scanf(i8* getelementptr inbounds ([3 x i8], [3 x i8]* @.str, i64 0, i64 0), i32* %10)
  store i32 0, i32* %3, align 4
  br label %12

12:                                               ; preds = %33, %0
  %13 = load i32, i32* %3, align 4
  %14 = load i32, i32* %10, align 4
  %15 = icmp slt i32 %13, %14
  br i1 %15, label %16, label %36

16:                                               ; preds = %12
  store i32 0, i32* %4, align 4
  br label %17

17:                                               ; preds = %29, %16
  %18 = load i32, i32* %4, align 4
  %19 = load i32, i32* %10, align 4
  %20 = icmp slt i32 %18, %19
  br i1 %20, label %21, label %32

21:                                               ; preds = %17
  %22 = load i32, i32* %3, align 4
  %23 = sext i32 %22 to i64
  %24 = getelementptr inbounds [100 x [100 x i32]], [100 x [100 x i32]]* %2, i64 0, i64 %23
  %25 = load i32, i32* %4, align 4
  %26 = sext i32 %25 to i64
  %27 = getelementptr inbounds [100 x i32], [100 x i32]* %24, i64 0, i64 %26
  %28 = call i32 (i8*, ...) @__isoc99_scanf(i8* getelementptr inbounds ([3 x i8], [3 x i8]* @.str, i64 0, i64 0), i32* %27)
  br label %29

29:                                               ; preds = %21
  %30 = load i32, i32* %4, align 4
  %31 = add nsw i32 %30, 1
  store i32 %31, i32* %4, align 4
  br label %17

32:                                               ; preds = %17
  br label %33

33:                                               ; preds = %32
  %34 = load i32, i32* %3, align 4
  %35 = add nsw i32 %34, 1
  store i32 %35, i32* %3, align 4
  br label %12

36:                                               ; preds = %12
  store i32 0, i32* %3, align 4
  br label %37

37:                                               ; preds = %116, %36
  %38 = load i32, i32* %3, align 4
  %39 = load i32, i32* %10, align 4
  %40 = icmp slt i32 %38, %39
  br i1 %40, label %41, label %119

41:                                               ; preds = %37
  store i32 0, i32* %4, align 4
  br label %42

42:                                               ; preds = %112, %41
  %43 = load i32, i32* %4, align 4
  %44 = load i32, i32* %10, align 4
  %45 = icmp slt i32 %43, %44
  br i1 %45, label %46, label %115

46:                                               ; preds = %42
  %47 = load i32, i32* %3, align 4
  %48 = sext i32 %47 to i64
  %49 = getelementptr inbounds [100 x [100 x i32]], [100 x [100 x i32]]* %2, i64 0, i64 %48
  %50 = load i32, i32* %4, align 4
  %51 = sext i32 %50 to i64
  %52 = getelementptr inbounds [100 x i32], [100 x i32]* %49, i64 0, i64 %51
  %53 = load i32, i32* %52, align 4
  %54 = icmp eq i32 %53, 0
  br i1 %54, label %55, label %78

55:                                               ; preds = %46
  %56 = load i32, i32* %3, align 4
  %57 = sub nsw i32 %56, 1
  %58 = sext i32 %57 to i64
  %59 = getelementptr inbounds [100 x [100 x i32]], [100 x [100 x i32]]* %2, i64 0, i64 %58
  %60 = load i32, i32* %4, align 4
  %61 = sext i32 %60 to i64
  %62 = getelementptr inbounds [100 x i32], [100 x i32]* %59, i64 0, i64 %61
  %63 = load i32, i32* %62, align 4
  %64 = icmp eq i32 %63, 255
  br i1 %64, label %65, label %78

65:                                               ; preds = %55
  %66 = load i32, i32* %3, align 4
  %67 = sext i32 %66 to i64
  %68 = getelementptr inbounds [100 x [100 x i32]], [100 x [100 x i32]]* %2, i64 0, i64 %67
  %69 = load i32, i32* %4, align 4
  %70 = sub nsw i32 %69, 1
  %71 = sext i32 %70 to i64
  %72 = getelementptr inbounds [100 x i32], [100 x i32]* %68, i64 0, i64 %71
  %73 = load i32, i32* %72, align 4
  %74 = icmp eq i32 %73, 255
  br i1 %74, label %75, label %78

75:                                               ; preds = %65
  %76 = load i32, i32* %3, align 4
  store i32 %76, i32* %5, align 4
  %77 = load i32, i32* %4, align 4
  store i32 %77, i32* %6, align 4
  br label %111

78:                                               ; preds = %65, %55, %46
  %79 = load i32, i32* %3, align 4
  %80 = sext i32 %79 to i64
  %81 = getelementptr inbounds [100 x [100 x i32]], [100 x [100 x i32]]* %2, i64 0, i64 %80
  %82 = load i32, i32* %4, align 4
  %83 = sext i32 %82 to i64
  %84 = getelementptr inbounds [100 x i32], [100 x i32]* %81, i64 0, i64 %83
  %85 = load i32, i32* %84, align 4
  %86 = icmp eq i32 %85, 0
  br i1 %86, label %87, label %110

87:                                               ; preds = %78
  %88 = load i32, i32* %3, align 4
  %89 = add nsw i32 %88, 1
  %90 = sext i32 %89 to i64
  %91 = getelementptr inbounds [100 x [100 x i32]], [100 x [100 x i32]]* %2, i64 0, i64 %90
  %92 = load i32, i32* %4, align 4
  %93 = sext i32 %92 to i64
  %94 = getelementptr inbounds [100 x i32], [100 x i32]* %91, i64 0, i64 %93
  %95 = load i32, i32* %94, align 4
  %96 = icmp eq i32 %95, 255
  br i1 %96, label %97, label %110

97:                                               ; preds = %87
  %98 = load i32, i32* %3, align 4
  %99 = sext i32 %98 to i64
  %100 = getelementptr inbounds [100 x [100 x i32]], [100 x [100 x i32]]* %2, i64 0, i64 %99
  %101 = load i32, i32* %4, align 4
  %102 = add nsw i32 %101, 1
  %103 = sext i32 %102 to i64
  %104 = getelementptr inbounds [100 x i32], [100 x i32]* %100, i64 0, i64 %103
  %105 = load i32, i32* %104, align 4
  %106 = icmp eq i32 %105, 255
  br i1 %106, label %107, label %110

107:                                              ; preds = %97
  %108 = load i32, i32* %3, align 4
  store i32 %108, i32* %7, align 4
  %109 = load i32, i32* %4, align 4
  store i32 %109, i32* %8, align 4
  br label %110

110:                                              ; preds = %107, %97, %87, %78
  br label %111

111:                                              ; preds = %110, %75
  br label %112

112:                                              ; preds = %111
  %113 = load i32, i32* %4, align 4
  %114 = add nsw i32 %113, 1
  store i32 %114, i32* %4, align 4
  br label %42

115:                                              ; preds = %42
  br label %116

116:                                              ; preds = %115
  %117 = load i32, i32* %3, align 4
  %118 = add nsw i32 %117, 1
  store i32 %118, i32* %3, align 4
  br label %37

119:                                              ; preds = %37
  %120 = load i32, i32* %5, align 4
  store i32 %120, i32* %3, align 4
  br label %121

121:                                              ; preds = %148, %119
  %122 = load i32, i32* %3, align 4
  %123 = load i32, i32* %7, align 4
  %124 = icmp sle i32 %122, %123
  br i1 %124, label %125, label %151

125:                                              ; preds = %121
  %126 = load i32, i32* %6, align 4
  store i32 %126, i32* %4, align 4
  br label %127

127:                                              ; preds = %144, %125
  %128 = load i32, i32* %4, align 4
  %129 = load i32, i32* %8, align 4
  %130 = icmp sle i32 %128, %129
  br i1 %130, label %131, label %147

131:                                              ; preds = %127
  %132 = load i32, i32* %3, align 4
  %133 = sext i32 %132 to i64
  %134 = getelementptr inbounds [100 x [100 x i32]], [100 x [100 x i32]]* %2, i64 0, i64 %133
  %135 = load i32, i32* %4, align 4
  %136 = sext i32 %135 to i64
  %137 = getelementptr inbounds [100 x i32], [100 x i32]* %134, i64 0, i64 %136
  %138 = load i32, i32* %137, align 4
  %139 = icmp eq i32 %138, 255
  br i1 %139, label %140, label %143

140:                                              ; preds = %131
  %141 = load i32, i32* %9, align 4
  %142 = add nsw i32 %141, 1
  store i32 %142, i32* %9, align 4
  br label %143

143:                                              ; preds = %140, %131
  br label %144

144:                                              ; preds = %143
  %145 = load i32, i32* %4, align 4
  %146 = add nsw i32 %145, 1
  store i32 %146, i32* %4, align 4
  br label %127

147:                                              ; preds = %127
  br label %148

148:                                              ; preds = %147
  %149 = load i32, i32* %3, align 4
  %150 = add nsw i32 %149, 1
  store i32 %150, i32* %3, align 4
  br label %121

151:                                              ; preds = %121
  %152 = load i32, i32* %9, align 4
  %153 = call i32 (i8*, ...) @printf(i8* getelementptr inbounds ([3 x i8], [3 x i8]* @.str, i64 0, i64 0), i32 %152)
  ret i32 0
}

declare dso_local i32 @__isoc99_scanf(i8*, ...) #1

declare dso_local i32 @printf(i8*, ...) #1


!llvm.module.flags = !{!0}
!llvm.ident = !{!1}

!0 = !{i32 1, !"wchar_size", i32 4}
!1 = !{!"clang version 10.0.0-4ubuntu1 "}
